; Function Attrs: mustprogress nounwind sspstrong uwtable
define void @_ZN4FLAC7Encoder4FileD2Ev(ptr nocapture noundef nonnull align 8 dereferenceable(16) %this) unnamed_addr #2 align 2 personality ptr @__gxx_personality_v0 {
entry:
  store ptr getelementptr inbounds ({ [60 x ptr] }, ptr @_ZTVN4FLAC7Encoder6StreamE, i64 0, i32 0, i64 2), ptr %this, align 8
  %encoder_.i = getelementptr inbounds i8, ptr %this, i64 8
  %0 = load ptr, ptr %encoder_.i, align 8
  %cmp.not.i = icmp eq ptr %0, null
  br i1 %cmp.not.i, label %_ZN4FLAC7Encoder6StreamD2Ev.exit, label %if.then.i

if.then.i:                                        ; preds = %entry
  %call.i = invoke i32 @FLAC__stream_encoder_finish(ptr noundef nonnull %0)
          to label %invoke.cont.i unwind label %terminate.lpad.i

invoke.cont.i:                                    ; preds = %if.then.i
  %1 = load ptr, ptr %encoder_.i, align 8
  invoke void @FLAC__stream_encoder_delete(ptr noundef %1)
          to label %_ZN4FLAC7Encoder6StreamD2Ev.exit unwind label %terminate.lpad.i

terminate.lpad.i:                                 ; preds = %invoke.cont.i, %if.then.i
  %2 = landingpad { ptr, i32 }
          catch ptr null
  %3 = extractvalue { ptr, i32 } %2, 0
  tail call void @__clang_call_terminate(ptr %3) #11
  unreachable

_ZN4FLAC7Encoder6StreamD2Ev.exit:                 ; preds = %entry, %invoke.cont.i
  ret void
}